; Function Attrs: nounwind uwtable
define ptr @l_Lean_Elab_Command_checkValidCtorModifier___rarg___lambda__1(ptr noundef readonly captures(none) %0, ptr noundef %1, ptr noundef %2, ptr readnone captures(none) %3) local_unnamed_addr #1 {
lean_dec.exit22:
  %4 = getelementptr inbounds nuw i8, ptr %0, i64 24
  %5 = load ptr, ptr %4, align 8, !tbaa !12
  %6 = getelementptr i8, ptr %5, i64 8
  %.val = load i64, ptr %6, align 8, !tbaa !4
  %.mask = and i64 %.val, 9223372036854775807
  %.not = icmp eq i64 %.mask, 0
  br i1 %.not, label %10, label %7

7:                                                ; preds = %lean_dec.exit22
  %8 = load ptr, ptr @l_Lean_Elab_Command_checkValidCtorModifier___rarg___lambda__1___closed__2, align 8, !tbaa !12
  %9 = tail call ptr @l_Lean_throwError___rarg(ptr noundef %1, ptr noundef %2, ptr noundef %8) #5
  br label %57

10:                                               ; preds = %lean_dec.exit22
  %11 = ptrtoint ptr %2 to i64
  %12 = and i64 %11, 1
  %.not34 = icmp eq i64 %12, 0
  br i1 %.not34, label %13, label %lean_dec.exit21

13:                                               ; preds = %10
  %14 = load i32, ptr %2, align 4, !tbaa !8
  %15 = icmp sgt i32 %14, 1
  br i1 %15, label %16, label %18, !prof !11

16:                                               ; preds = %13
  %17 = add nsw i32 %14, -1
  store i32 %17, ptr %2, align 4, !tbaa !8
  br label %lean_dec.exit21

18:                                               ; preds = %13
  %.not.i24 = icmp eq i32 %14, 0
  br i1 %.not.i24, label %lean_dec.exit21, label %19

19:                                               ; preds = %18
  tail call void @lean_dec_ref_cold(ptr noundef nonnull %2) #5
  br label %lean_dec.exit21

lean_dec.exit21:                                  ; preds = %19, %18, %16, %10
  %20 = getelementptr inbounds nuw i8, ptr %1, i64 8
  %21 = load ptr, ptr %20, align 8, !tbaa !12
  %22 = ptrtoint ptr %21 to i64
  %23 = and i64 %22, 1
  %.not35 = icmp eq i64 %23, 0
  br i1 %.not35, label %24, label %lean_inc.exit23

24:                                               ; preds = %lean_dec.exit21
  %.val.i = load i32, ptr %21, align 4, !tbaa !8
  %25 = icmp sgt i32 %.val.i, 0
  br i1 %25, label %26, label %28, !prof !11

26:                                               ; preds = %24
  %27 = add nuw i32 %.val.i, 1
  store i32 %27, ptr %21, align 4, !tbaa !8
  br label %lean_inc.exit23

28:                                               ; preds = %24
  %.not.i30 = icmp eq i32 %.val.i, 0
  br i1 %.not.i30, label %lean_inc.exit23, label %29

29:                                               ; preds = %28
  tail call void @lean_inc_ref_cold(ptr noundef nonnull %21) #5
  br label %lean_inc.exit23

lean_inc.exit23:                                  ; preds = %29, %28, %26, %lean_dec.exit21
  %30 = ptrtoint ptr %1 to i64
  %31 = and i64 %30, 1
  %.not36 = icmp eq i64 %31, 0
  br i1 %.not36, label %32, label %lean_dec.exit20

32:                                               ; preds = %lean_inc.exit23
  %33 = load i32, ptr %1, align 4, !tbaa !8
  %34 = icmp sgt i32 %33, 1
  br i1 %34, label %35, label %37, !prof !11

35:                                               ; preds = %32
  %36 = add nsw i32 %33, -1
  store i32 %36, ptr %1, align 4, !tbaa !8
  br label %lean_dec.exit20

37:                                               ; preds = %32
  %.not.i26 = icmp eq i32 %33, 0
  br i1 %.not.i26, label %lean_dec.exit20, label %38

38:                                               ; preds = %37
  tail call void @lean_dec_ref_cold(ptr noundef nonnull %1) #5
  br label %lean_dec.exit20

lean_dec.exit20:                                  ; preds = %38, %37, %35, %lean_inc.exit23
  %39 = getelementptr inbounds nuw i8, ptr %21, i64 16
  %40 = load ptr, ptr %39, align 8, !tbaa !12
  %41 = ptrtoint ptr %40 to i64
  %42 = and i64 %41, 1
  %.not37 = icmp eq i64 %42, 0
  br i1 %.not37, label %43, label %lean_inc.exit

43:                                               ; preds = %lean_dec.exit20
  %.val.i31 = load i32, ptr %40, align 4, !tbaa !8
  %44 = icmp sgt i32 %.val.i31, 0
  br i1 %44, label %45, label %47, !prof !11

45:                                               ; preds = %43
  %46 = add nuw i32 %.val.i31, 1
  store i32 %46, ptr %40, align 4, !tbaa !8
  br label %lean_inc.exit

47:                                               ; preds = %43
  %.not.i32 = icmp eq i32 %.val.i31, 0
  br i1 %.not.i32, label %lean_inc.exit, label %48

48:                                               ; preds = %47
  tail call void @lean_inc_ref_cold(ptr noundef nonnull %40) #5
  br label %lean_inc.exit

lean_inc.exit:                                    ; preds = %48, %47, %45, %lean_dec.exit20
  br i1 %.not35, label %49, label %lean_dec.exit

49:                                               ; preds = %lean_inc.exit
  %50 = load i32, ptr %21, align 4, !tbaa !8
  %51 = icmp sgt i32 %50, 1
  br i1 %51, label %52, label %54, !prof !11

52:                                               ; preds = %49
  %53 = add nsw i32 %50, -1
  store i32 %53, ptr %21, align 4, !tbaa !8
  br label %lean_dec.exit

54:                                               ; preds = %49
  %.not.i28 = icmp eq i32 %50, 0
  br i1 %.not.i28, label %lean_dec.exit, label %55

55:                                               ; preds = %54
  tail call void @lean_dec_ref_cold(ptr noundef nonnull %21) #5
  br label %lean_dec.exit

lean_dec.exit:                                    ; preds = %55, %54, %52, %lean_inc.exit
  %56 = tail call ptr @lean_apply_2(ptr noundef %40, ptr noundef nonnull inttoptr (i64 1 to ptr), ptr noundef nonnull inttoptr (i64 1 to ptr)) #5
  br label %57

57:                                               ; preds = %lean_dec.exit, %7
  %.0 = phi ptr [ %9, %7 ], [ %56, %lean_dec.exit ]
  ret ptr %.0
}